; Function Attrs: mustprogress uwtable
define internal void @_ZN12_GLOBAL__N_120DOCTEST_ANON_FUNC_16Ev() #5 personality ptr @__gxx_personality_v0 {
  %1 = alloca %"struct.(anonymous namespace)::DOCTEST_ANON_CLASS_15", align 8
  call void @_ZN4Luau12BuiltinTypesC1Ev(ptr noundef nonnull align 8 dereferenceable(224) %1)
  invoke fastcc void @_ZN12_GLOBAL__N_121DOCTEST_ANON_CLASS_151fEv(ptr noundef nonnull align 8 dereferenceable(224) %1)
          to label %2 unwind label %3

2:                                                ; preds = %0
  call void @_ZN4Luau12BuiltinTypesD1Ev(ptr noundef nonnull align 8 dereferenceable(224) %1) #23
  ret void

3:                                                ; preds = %0
  %4 = landingpad { ptr, i32 }
          cleanup
  call void @_ZN4Luau12BuiltinTypesD1Ev(ptr noundef nonnull align 8 dereferenceable(224) %1) #23
  resume { ptr, i32 } %4
}